target datalayout = "e-m:e-p270:32:32-p271:32:32-p272:64:64-i64:64-i128:128-f80:128-n8:16:32:64-S128"
target triple = "x86_64-pc-linux-gnu"

%struct.gmx_tng_trajectory = type { ptr, i8, i64, i8, double, i8, i32, i32 }

; Function Attrs: mustprogress uwtable
define void @_Z10fflush_tngP18gmx_tng_trajectory(ptr noundef %0) #0 {
  %2 = alloca ptr, align 8
  store ptr %0, ptr %2, align 8, !tbaa !13
  %3 = load ptr, ptr %2, align 8, !tbaa !13
  %4 = icmp ne ptr %3, null
  br i1 %4, label %6, label %5

5:                                                ; preds = %1
  br label %11

6:                                                ; preds = %1
  %7 = load ptr, ptr %2, align 8, !tbaa !13
  %8 = getelementptr inbounds nuw %struct.gmx_tng_trajectory, ptr %7, i32 0, i32 0
  %9 = load ptr, ptr %8, align 8, !tbaa !83
  %10 = call i32 @tng_frame_set_premature_write(ptr noundef %9, i8 noundef signext 1)
  br label %11

11:                                               ; preds = %6, %5
  ret void
}