; Function Attrs: mustprogress uwtable
define void @_Z10fflush_tngP18gmx_tng_trajectory(ptr noundef readonly %0) local_unnamed_addr #0 {
  %.not = icmp eq ptr %0, null
  br i1 %.not, label %5, label %2

2:                                                ; preds = %1
  %3 = load ptr, ptr %0, align 8, !tbaa !41
  %4 = tail call i32 @tng_frame_set_premature_write(ptr noundef %3, i8 noundef signext 1)
  br label %5

5:                                                ; preds = %1, %2
  ret void
}